; Function Attrs: mustprogress uwtable
define void @_ZN5boost9unit_test6output22compiler_log_formatter9log_startERSom(ptr nocapture noundef nonnull writeonly align 8 dereferenceable(20) %0, ptr noundef nonnull align 8 dereferenceable(8) %1, i64 noundef %2) unnamed_addr #3 align 2 {
  %4 = alloca %"class.boost::unit_test::basic_cstring", align 8
  %5 = load ptr, ptr @_ZN5boost9unit_test14runtime_config17btrt_color_outputB5cxx11E, align 8, !tbaa !3
  %6 = load i64, ptr getelementptr inbounds nuw (i8, ptr @_ZN5boost9unit_test14runtime_config17btrt_color_outputB5cxx11E, i64 8), align 8, !tbaa !10
  %7 = getelementptr inbounds nuw i8, ptr %5, i64 %6
  %8 = tail call noundef nonnull align 8 dereferenceable(48) ptr @_ZN5boost9unit_test14runtime_config14argument_storeEv()
  call void @llvm.lifetime.start.p0(i64 16, ptr nonnull %4)
  store ptr %5, ptr %4, align 8, !tbaa !11
  %9 = getelementptr inbounds nuw i8, ptr %4, i64 8
  store ptr %7, ptr %9, align 8, !tbaa !13
  %10 = call noundef nonnull align 1 dereferenceable(1) ptr @_ZN5boost7runtime15arguments_store3getIbEERT_NS_9unit_test13basic_cstringIKcEE(ptr noundef nonnull align 8 dereferenceable(48) %8, ptr noundef nonnull %4)
  call void @llvm.lifetime.end.p0(i64 16, ptr nonnull %4)
  %11 = load i8, ptr %10, align 1, !tbaa !14, !range !16, !noundef !17
  %12 = getelementptr inbounds nuw i8, ptr %0, i64 12
  store i8 %11, ptr %12, align 4, !tbaa !18
  %.not = icmp eq i64 %2, 0
  br i1 %.not, label %21, label %13

13:                                               ; preds = %3
  %14 = call noundef nonnull align 8 dereferenceable(8) ptr @_ZSt16__ostream_insertIcSt11char_traitsIcEERSt13basic_ostreamIT_T0_ES6_PKS3_l(ptr noundef nonnull align 8 dereferenceable(8) %1, ptr noundef nonnull @.str, i64 noundef 8)
  %15 = call noundef nonnull align 8 dereferenceable(8) ptr @_ZNSo9_M_insertImEERSoT_(ptr noundef nonnull align 8 dereferenceable(8) %1, i64 noundef %2)
  %16 = call noundef nonnull align 8 dereferenceable(8) ptr @_ZSt16__ostream_insertIcSt11char_traitsIcEERSt13basic_ostreamIT_T0_ES6_PKS3_l(ptr noundef nonnull align 8 dereferenceable(8) %15, ptr noundef nonnull @.str.1, i64 noundef 6)
  %.not4 = icmp eq i64 %2, 1
  %17 = select i1 %.not4, ptr @.str.3, ptr @.str.2
  %18 = select i1 %.not4, i64 4, i64 5
  %19 = call noundef nonnull align 8 dereferenceable(8) ptr @_ZSt16__ostream_insertIcSt11char_traitsIcEERSt13basic_ostreamIT_T0_ES6_PKS3_l(ptr noundef nonnull align 8 dereferenceable(8) %15, ptr noundef nonnull %17, i64 noundef %18)
  %20 = call noundef nonnull align 8 dereferenceable(8) ptr @_ZSt16__ostream_insertIcSt11char_traitsIcEERSt13basic_ostreamIT_T0_ES6_PKS3_l(ptr noundef nonnull align 8 dereferenceable(8) %15, ptr noundef nonnull @.str.4, i64 noundef 4)
  br label %21

21:                                               ; preds = %13, %3
  ret void
}